target datalayout = "e-m:e-p270:32:32-p271:32:32-p272:64:64-i64:64-i128:128-f80:128-n8:16:32:64-S128"
target triple = "x86_64-pc-linux-gnu"

; Function Attrs: nounwind uwtable
define internal float @euclidean_kernel(ptr noundef %0, ptr noundef %1) #2 {
  %3 = alloca ptr, align 8
  %4 = alloca ptr, align 8
  %5 = alloca float, align 4
  store ptr %0, ptr %3, align 8, !tbaa !73
  store ptr %1, ptr %4, align 8, !tbaa !73
  call void @llvm.lifetime.start.p0(i64 4, ptr %5) #10
  %6 = load ptr, ptr %3, align 8, !tbaa !73
  %7 = getelementptr inbounds float, ptr %6, i64 0
  %8 = load float, ptr %7, align 4, !tbaa !75
  %9 = load ptr, ptr %4, align 8, !tbaa !73
  %10 = getelementptr inbounds float, ptr %9, i64 0
  %11 = load float, ptr %10, align 4, !tbaa !75
  %12 = fsub nsz float %8, %11
  %13 = load ptr, ptr %3, align 8, !tbaa !73
  %14 = getelementptr inbounds float, ptr %13, i64 0
  %15 = load float, ptr %14, align 4, !tbaa !75
  %16 = load ptr, ptr %4, align 8, !tbaa !73
  %17 = getelementptr inbounds float, ptr %16, i64 0
  %18 = load float, ptr %17, align 4, !tbaa !75
  %19 = fsub nsz float %15, %18
  %20 = load ptr, ptr %3, align 8, !tbaa !73
  %21 = getelementptr inbounds float, ptr %20, i64 1
  %22 = load float, ptr %21, align 4, !tbaa !75
  %23 = load ptr, ptr %4, align 8, !tbaa !73
  %24 = getelementptr inbounds float, ptr %23, i64 1
  %25 = load float, ptr %24, align 4, !tbaa !75
  %26 = fsub nsz float %22, %25
  %27 = load ptr, ptr %3, align 8, !tbaa !73
  %28 = getelementptr inbounds float, ptr %27, i64 1
  %29 = load float, ptr %28, align 4, !tbaa !75
  %30 = load ptr, ptr %4, align 8, !tbaa !73
  %31 = getelementptr inbounds float, ptr %30, i64 1
  %32 = load float, ptr %31, align 4, !tbaa !75
  %33 = fsub nsz float %29, %32
  %34 = fmul nsz float %26, %33
  %35 = call nsz float @llvm.fmuladd.f32(float %12, float %19, float %34)
  %36 = load ptr, ptr %3, align 8, !tbaa !73
  %37 = getelementptr inbounds float, ptr %36, i64 2
  %38 = load float, ptr %37, align 4, !tbaa !75
  %39 = load ptr, ptr %4, align 8, !tbaa !73
  %40 = getelementptr inbounds float, ptr %39, i64 2
  %41 = load float, ptr %40, align 4, !tbaa !75
  %42 = fsub nsz float %38, %41
  %43 = load ptr, ptr %3, align 8, !tbaa !73
  %44 = getelementptr inbounds float, ptr %43, i64 2
  %45 = load float, ptr %44, align 4, !tbaa !75
  %46 = load ptr, ptr %4, align 8, !tbaa !73
  %47 = getelementptr inbounds float, ptr %46, i64 2
  %48 = load float, ptr %47, align 4, !tbaa !75
  %49 = fsub nsz float %45, %48
  %50 = call nsz float @llvm.fmuladd.f32(float %42, float %49, float %35)
  store float %50, ptr %5, align 4, !tbaa !75
  %51 = load float, ptr %5, align 4, !tbaa !75
  %52 = call nsz float @llvm.sqrt.f32(float %51)
  call void @llvm.lifetime.end.p0(i64 4, ptr %5) #10
  ret float %52
}