; Function Attrs: mustprogress nofree norecurse nosync nounwind willreturn memory(argmem: read) uwtable
define internal float @euclidean_kernel(ptr noundef readonly captures(none) %0, ptr noundef readonly captures(none) %1) #4 {
  %3 = load float, ptr %0, align 4, !tbaa !58
  %4 = load float, ptr %1, align 4, !tbaa !58
  %5 = fsub nsz float %3, %4
  %6 = getelementptr inbounds nuw i8, ptr %0, i64 4
  %7 = load float, ptr %6, align 4, !tbaa !58
  %8 = getelementptr inbounds nuw i8, ptr %1, i64 4
  %9 = load float, ptr %8, align 4, !tbaa !58
  %10 = fsub nsz float %7, %9
  %11 = fmul nsz float %10, %10
  %12 = tail call nsz float @llvm.fmuladd.f32(float %5, float %5, float %11)
  %13 = getelementptr inbounds nuw i8, ptr %0, i64 8
  %14 = load float, ptr %13, align 4, !tbaa !58
  %15 = getelementptr inbounds nuw i8, ptr %1, i64 8
  %16 = load float, ptr %15, align 4, !tbaa !58
  %17 = fsub nsz float %14, %16
  %18 = tail call nsz float @llvm.fmuladd.f32(float %17, float %17, float %12)
  %19 = tail call nsz float @llvm.sqrt.f32(float %18)
  ret float %19
}